; Function Attrs: nofree norecurse nosync nounwind memory(argmem: read) uwtable
define internal fastcc noundef zeroext i1 @is_code_in_table(i32 noundef %0, ptr noundef readonly captures(none) %1, i32 noundef range(i32 12, 793) %2) unnamed_addr #5 {
  %4 = load i32, ptr %1, align 4
  %5 = icmp ult i32 %0, %4
  br i1 %5, label %bsearch.exit, label %6

6:                                                ; preds = %3
  %7 = zext nneg i32 %2 to i64
  %8 = getelementptr i32, ptr %1, i64 %7
  %9 = getelementptr i8, ptr %8, i64 -4
  %10 = load i32, ptr %9, align 4
  %11 = icmp ugt i32 %0, %10
  br i1 %11, label %bsearch.exit, label %12

12:                                               ; preds = %6
  %13 = lshr i32 %2, 1
  %14 = zext nneg i32 %13 to i64
  br label %.lr.ph.i

.lr.ph.i:                                         ; preds = %12, %codepoint_range_cmp.exit.thread
  %.01621.i = phi i64 [ %.1.i, %codepoint_range_cmp.exit.thread ], [ 0, %12 ]
  %.01720.i = phi i64 [ %.118.i, %codepoint_range_cmp.exit.thread ], [ %14, %12 ]
  %15 = add i64 %.01720.i, %.01621.i
  %16 = lshr i64 %15, 1
  %17 = shl i64 %16, 3
  %18 = getelementptr inbounds nuw i8, ptr %1, i64 %17
  %19 = load i32, ptr %18, align 4
  %20 = icmp ult i32 %0, %19
  br i1 %20, label %codepoint_range_cmp.exit.thread, label %codepoint_range_cmp.exit

codepoint_range_cmp.exit:                         ; preds = %.lr.ph.i
  %21 = getelementptr inbounds nuw i8, ptr %18, i64 4
  %22 = load i32, ptr %21, align 4
  %.not8 = icmp ugt i32 %0, %22
  br i1 %.not8, label %23, label %bsearch.exit

23:                                               ; preds = %codepoint_range_cmp.exit
  %24 = add nuw i64 %16, 1
  br label %codepoint_range_cmp.exit.thread

codepoint_range_cmp.exit.thread:                  ; preds = %.lr.ph.i, %23
  %.118.i = phi i64 [ %.01720.i, %23 ], [ %16, %.lr.ph.i ]
  %.1.i = phi i64 [ %24, %23 ], [ %.01621.i, %.lr.ph.i ]
  %25 = icmp ult i64 %.1.i, %.118.i
  br i1 %25, label %.lr.ph.i, label %bsearch.exit, !llvm.loop !6

bsearch.exit:                                     ; preds = %codepoint_range_cmp.exit.thread, %codepoint_range_cmp.exit, %3, %6
  %.0 = phi i1 [ false, %6 ], [ false, %3 ], [ true, %codepoint_range_cmp.exit ], [ false, %codepoint_range_cmp.exit.thread ]
  ret i1 %.0
}